; ModuleID = '24/1502.c'
source_filename = "24/1502.c"
target datalayout = "e-m:e-p270:32:32-p271:32:32-p272:64:64-i64:64-f80:128-n8:16:32:64-S128"
target triple = "x86_64-pc-linux-gnu"

@.str = private unnamed_addr constant [2 x i8] c"\0A\00", align 1

; Function Attrs: noinline nounwind uwtable
define dso_local i32 @main() #0 {
  %1 = alloca i32, align 4
  %2 = alloca [999 x i8], align 16
  %3 = alloca [200 x [128 x i8]], align 16
  %4 = alloca [200 x i32], align 16
  %5 = alloca i32, align 4
  %6 = alloca i32, align 4
  %7 = alloca i32, align 4
  %8 = alloca i32, align 4
  %9 = alloca i32, align 4
  %10 = alloca i32, align 4
  store i32 0, i32* %1, align 4
  %11 = bitcast [200 x [128 x i8]]* %3 to i8*
  call void @llvm.memset.p0i8.i64(i8* align 16 %11, i8 0, i64 25600, i1 false)
  %12 = bitcast [200 x i32]* %4 to i8*
  call void @llvm.memset.p0i8.i64(i8* align 16 %12, i8 0, i64 800, i1 false)
  store i32 0, i32* %5, align 4
  store i32 0, i32* %6, align 4
  store i32 0, i32* %9, align 4
  store i32 0, i32* %10, align 4
  %13 = getelementptr inbounds [999 x i8], [999 x i8]* %2, i64 0, i64 0
  %14 = call i32 (i8*, ...) bitcast (i32 (...)* @gets to i32 (i8*, ...)*)(i8* %13)
  store i32 0, i32* %7, align 4
  br label %15

15:                                               ; preds = %53, %0
  %16 = load i32, i32* %7, align 4
  %17 = sext i32 %16 to i64
  %18 = getelementptr inbounds [999 x i8], [999 x i8]* %2, i64 0, i64 %17
  %19 = load i8, i8* %18, align 1
  %20 = sext i8 %19 to i32
  %21 = icmp ne i32 %20, 0
  br i1 %21, label %22, label %56

22:                                               ; preds = %15
  %23 = load i32, i32* %7, align 4
  %24 = sext i32 %23 to i64
  %25 = getelementptr inbounds [999 x i8], [999 x i8]* %2, i64 0, i64 %24
  %26 = load i8, i8* %25, align 1
  %27 = sext i8 %26 to i32
  %28 = icmp eq i32 %27, 32
  br i1 %28, label %36, label %29

29:                                               ; preds = %22
  %30 = load i32, i32* %7, align 4
  %31 = sext i32 %30 to i64
  %32 = getelementptr inbounds [999 x i8], [999 x i8]* %2, i64 0, i64 %31
  %33 = load i8, i8* %32, align 1
  %34 = sext i8 %33 to i32
  %35 = icmp eq i32 %34, 44
  br i1 %35, label %36, label %39

36:                                               ; preds = %29, %22
  %37 = load i32, i32* %5, align 4
  %38 = add nsw i32 %37, 1
  store i32 %38, i32* %5, align 4
  store i32 0, i32* %6, align 4
  br label %52

39:                                               ; preds = %29
  %40 = load i32, i32* %7, align 4
  %41 = sext i32 %40 to i64
  %42 = getelementptr inbounds [999 x i8], [999 x i8]* %2, i64 0, i64 %41
  %43 = load i8, i8* %42, align 1
  %44 = load i32, i32* %5, align 4
  %45 = sext i32 %44 to i64
  %46 = getelementptr inbounds [200 x [128 x i8]], [200 x [128 x i8]]* %3, i64 0, i64 %45
  %47 = load i32, i32* %6, align 4
  %48 = sext i32 %47 to i64
  %49 = getelementptr inbounds [128 x i8], [128 x i8]* %46, i64 0, i64 %48
  store i8 %43, i8* %49, align 1
  %50 = load i32, i32* %6, align 4
  %51 = add nsw i32 %50, 1
  store i32 %51, i32* %6, align 4
  br label %52

52:                                               ; preds = %39, %36
  br label %53

53:                                               ; preds = %52
  %54 = load i32, i32* %7, align 4
  %55 = add nsw i32 %54, 1
  store i32 %55, i32* %7, align 4
  br label %15

56:                                               ; preds = %15
  %57 = load i32, i32* %5, align 4
  store i32 %57, i32* %8, align 4
  store i32 0, i32* %5, align 4
  br label %58

58:                                               ; preds = %87, %56
  %59 = load i32, i32* %5, align 4
  %60 = load i32, i32* %8, align 4
  %61 = add nsw i32 %60, 1
  %62 = icmp slt i32 %59, %61
  br i1 %62, label %63, label %90

63:                                               ; preds = %58
  store i32 0, i32* %6, align 4
  br label %64

64:                                               ; preds = %83, %63
  %65 = load i32, i32* %5, align 4
  %66 = sext i32 %65 to i64
  %67 = getelementptr inbounds [200 x [128 x i8]], [200 x [128 x i8]]* %3, i64 0, i64 %66
  %68 = load i32, i32* %6, align 4
  %69 = sext i32 %68 to i64
  %70 = getelementptr inbounds [128 x i8], [128 x i8]* %67, i64 0, i64 %69
  %71 = load i8, i8* %70, align 1
  %72 = sext i8 %71 to i32
  %73 = icmp ne i32 %72, 0
  br i1 %73, label %74, label %86

74:                                               ; preds = %64
  %75 = load i32, i32* %5, align 4
  %76 = sext i32 %75 to i64
  %77 = getelementptr inbounds [200 x i32], [200 x i32]* %4, i64 0, i64 %76
  %78 = load i32, i32* %77, align 4
  %79 = add nsw i32 %78, 1
  %80 = load i32, i32* %5, align 4
  %81 = sext i32 %80 to i64
  %82 = getelementptr inbounds [200 x i32], [200 x i32]* %4, i64 0, i64 %81
  store i32 %79, i32* %82, align 4
  br label %83

83:                                               ; preds = %74
  %84 = load i32, i32* %6, align 4
  %85 = add nsw i32 %84, 1
  store i32 %85, i32* %6, align 4
  br label %64

86:                                               ; preds = %64
  br label %87

87:                                               ; preds = %86
  %88 = load i32, i32* %5, align 4
  %89 = add nsw i32 %88, 1
  store i32 %89, i32* %5, align 4
  br label %58

90:                                               ; preds = %58
  store i32 0, i32* %5, align 4
  br label %91

91:                                               ; preds = %110, %90
  %92 = load i32, i32* %5, align 4
  %93 = load i32, i32* %8, align 4
  %94 = icmp slt i32 %92, %93
  br i1 %94, label %95, label %113

95:                                               ; preds = %91
  %96 = load i32, i32* %9, align 4
  %97 = sext i32 %96 to i64
  %98 = getelementptr inbounds [200 x i32], [200 x i32]* %4, i64 0, i64 %97
  %99 = load i32, i32* %98, align 4
  %100 = load i32, i32* %5, align 4
  %101 = add nsw i32 %100, 1
  %102 = sext i32 %101 to i64
  %103 = getelementptr inbounds [200 x i32], [200 x i32]* %4, i64 0, i64 %102
  %104 = load i32, i32* %103, align 4
  %105 = icmp slt i32 %99, %104
  br i1 %105, label %106, label %109

106:                                              ; preds = %95
  %107 = load i32, i32* %5, align 4
  %108 = add nsw i32 %107, 1
  store i32 %108, i32* %9, align 4
  br label %109

109:                                              ; preds = %106, %95
  br label %110

110:                                              ; preds = %109
  %111 = load i32, i32* %5, align 4
  %112 = add nsw i32 %111, 1
  store i32 %112, i32* %5, align 4
  br label %91

113:                                              ; preds = %91
  store i32 0, i32* %5, align 4
  br label %114

114:                                              ; preds = %123, %113
  %115 = load i32, i32* %5, align 4
  %116 = sext i32 %115 to i64
  %117 = getelementptr inbounds [200 x i32], [200 x i32]* %4, i64 0, i64 %116
  %118 = load i32, i32* %117, align 4
  %119 = icmp eq i32 %118, 0
  br i1 %119, label %120, label %126

120:                                              ; preds = %114
  %121 = load i32, i32* %5, align 4
  %122 = add nsw i32 %121, 1
  store i32 %122, i32* %10, align 4
  br label %123

123:                                              ; preds = %120
  %124 = load i32, i32* %5, align 4
  %125 = add nsw i32 %124, 1
  store i32 %125, i32* %5, align 4
  br label %114

126:                                              ; preds = %114
  store i32 0, i32* %5, align 4
  br label %127

127:                                              ; preds = %154, %126
  %128 = load i32, i32* %5, align 4
  %129 = load i32, i32* %8, align 4
  %130 = icmp slt i32 %128, %129
  br i1 %130, label %131, label %157

131:                                              ; preds = %127
  %132 = load i32, i32* %5, align 4
  %133 = add nsw i32 %132, 1
  %134 = sext i32 %133 to i64
  %135 = getelementptr inbounds [200 x i32], [200 x i32]* %4, i64 0, i64 %134
  %136 = load i32, i32* %135, align 4
  %137 = icmp ne i32 %136, 0
  br i1 %137, label %138, label %153

138:                                              ; preds = %131
  %139 = load i32, i32* %10, align 4
  %140 = sext i32 %139 to i64
  %141 = getelementptr inbounds [200 x i32], [200 x i32]* %4, i64 0, i64 %140
  %142 = load i32, i32* %141, align 4
  %143 = load i32, i32* %5, align 4
  %144 = add nsw i32 %143, 1
  %145 = sext i32 %144 to i64
  %146 = getelementptr inbounds [200 x i32], [200 x i32]* %4, i64 0, i64 %145
  %147 = load i32, i32* %146, align 4
  %148 = icmp sgt i32 %142, %147
  br i1 %148, label %149, label %152

149:                                              ; preds = %138
  %150 = load i32, i32* %5, align 4
  %151 = add nsw i32 %150, 1
  store i32 %151, i32* %10, align 4
  br label %152

152:                                              ; preds = %149, %138
  br label %153

153:                                              ; preds = %152, %131
  br label %154

154:                                              ; preds = %153
  %155 = load i32, i32* %5, align 4
  %156 = add nsw i32 %155, 1
  store i32 %156, i32* %5, align 4
  br label %127

157:                                              ; preds = %127
  %158 = load i32, i32* %9, align 4
  %159 = sext i32 %158 to i64
  %160 = getelementptr inbounds [200 x [128 x i8]], [200 x [128 x i8]]* %3, i64 0, i64 %159
  %161 = getelementptr inbounds [128 x i8], [128 x i8]* %160, i64 0, i64 0
  %162 = call i32 @puts(i8* %161)
  %163 = call i32 (i8*, ...) @printf(i8* getelementptr inbounds ([2 x i8], [2 x i8]* @.str, i64 0, i64 0))
  %164 = load i32, i32* %10, align 4
  %165 = sext i32 %164 to i64
  %166 = getelementptr inbounds [200 x [128 x i8]], [200 x [128 x i8]]* %3, i64 0, i64 %165
  %167 = getelementptr inbounds [128 x i8], [128 x i8]* %166, i64 0, i64 0
  %168 = call i32 @puts(i8* %167)
  ret i32 0
}

; Function Attrs: argmemonly nounwind willreturn
declare void @llvm.memset.p0i8.i64(i8* nocapture writeonly, i8, i64, i1 immarg) #1

declare dso_local i32 @gets(...) #2

declare dso_local i32 @puts(i8*) #2

declare dso_local i32 @printf(i8*, ...) #2


!llvm.module.flags = !{!0}
!llvm.ident = !{!1}

!0 = !{i32 1, !"wchar_size", i32 4}
!1 = !{!"clang version 10.0.0-4ubuntu1 "}
